target datalayout = "e-m:e-p270:32:32-p271:32:32-p272:64:64-i64:64-i128:128-f80:128-n8:16:32:64-S128"
target triple = "x86_64-pc-linux-gnu"

%struct.Ivy_Man_t_ = type { ptr, ptr, ptr, ptr, ptr, %struct.Ivy_Obj_t_, [8 x i32], i32, i32, ptr, i32, i32, i32, i32, ptr, i32, ptr, ptr, ptr, i32, ptr, ptr, ptr, i64, i64 }
%struct.Ivy_Obj_t_ = type { i32, i32, i32, i32, ptr, ptr, ptr, ptr, ptr, ptr, ptr, ptr }
%struct.Ivy_FraigMan_t_ = type { ptr, i64, i64, ptr, ptr, i32, ptr, ptr, i32, ptr, ptr, %struct.Ivy_FraigList_t_, %struct.Ivy_FraigList_t_, i32, ptr, i32, ptr, ptr, i32, i32, i32, i32, i32, i32, i32, i32, i32, i32, i32, i32, i32, i64, i64, i64, i64, i64, i64, i64, i64, i64, i64 }
%struct.Ivy_FraigList_t_ = type { ptr, ptr, i32 }
%struct.sat_solver_t = type { i32, i32, i32, i32, %struct.Sat_Mem_t_, i32, i32, ptr, ptr, i32, i32, i32, i32, i32, i64, i64, i64, ptr, ptr, i32, i32, %struct.veci_t, ptr, i32, ptr, ptr, ptr, ptr, ptr, ptr, ptr, ptr, %struct.veci_t, %struct.veci_t, %struct.veci_t, %struct.veci_t, ptr, %struct.veci_t, i32, i32, i32, double, double, i32, i32, i32, %struct.stats_t, i32, i32, i32, i32, i32, i64, i64, i64, %struct.veci_t, ptr, i32, i32, i32, %struct.veci_t, %struct.veci_t, i32, i32, i32, ptr, ptr, i32, ptr, i32, i32, %struct.veci_t, %struct.veci_t, %struct.veci_t, ptr, ptr, i32, ptr }
%struct.Sat_Mem_t_ = type { [2 x i32], [2 x i32], [2 x i32], [2 x i32], i32, i32, i32, i32, ptr }
%struct.stats_t = type { i32, i32, i32, i64, i64, i64, i64, i64, i64, i64 }
%struct.veci_t = type { i32, i32, ptr }
%struct.Vec_Ptr_t_ = type { i32, i32, ptr }

; Function Attrs: inlinehint nounwind uwtable
define internal void @Ivy_InfoSetBit(ptr noundef %0, i32 noundef %1) #4 {
  %3 = alloca ptr, align 8
  %4 = alloca i32, align 4
  store ptr %0, ptr %3, align 8, !tbaa !139
  store i32 %1, ptr %4, align 4, !tbaa !44
  %5 = load i32, ptr %4, align 4, !tbaa !44
  %6 = and i32 %5, 31
  %7 = shl i32 1, %6
  %8 = load ptr, ptr %3, align 8, !tbaa !139
  %9 = load i32, ptr %4, align 4, !tbaa !44
  %10 = ashr i32 %9, 5
  %11 = sext i32 %10 to i64
  %12 = getelementptr inbounds i32, ptr %8, i64 %11
  %13 = load i32, ptr %12, align 4, !tbaa !44
  %14 = or i32 %13, %7
  store i32 %14, ptr %12, align 4, !tbaa !44
  ret void
}

; Function Attrs: inlinehint nounwind uwtable
define internal i32 @Ivy_ObjSatNum(ptr noundef %0) #4 {
  %2 = alloca ptr, align 8
  store ptr %0, ptr %2, align 8, !tbaa !72
  %3 = load ptr, ptr %2, align 8, !tbaa !72
  %4 = getelementptr inbounds nuw %struct.Ivy_Obj_t_, ptr %3, i32 0, i32 7
  %5 = load ptr, ptr %4, align 8, !tbaa !79
  %6 = ptrtoint ptr %5 to i64
  %7 = trunc i64 %6 to i32
  ret i32 %7
}

; Function Attrs: inlinehint nounwind uwtable
define internal ptr @Vec_PtrEntry(ptr noundef %0, i32 noundef %1) #4 {
  %3 = alloca ptr, align 8
  %4 = alloca i32, align 4
  store ptr %0, ptr %3, align 8, !tbaa !130
  store i32 %1, ptr %4, align 4, !tbaa !44
  %5 = load ptr, ptr %3, align 8, !tbaa !130
  %6 = getelementptr inbounds nuw %struct.Vec_Ptr_t_, ptr %5, i32 0, i32 2
  %7 = load ptr, ptr %6, align 8, !tbaa !133
  %8 = load i32, ptr %4, align 4, !tbaa !44
  %9 = sext i32 %8 to i64
  %10 = getelementptr inbounds ptr, ptr %7, i64 %9
  %11 = load ptr, ptr %10, align 8, !tbaa !22
  ret ptr %11
}

; Function Attrs: inlinehint nounwind uwtable
define internal i32 @Vec_PtrSize(ptr noundef %0) #4 {
  %2 = alloca ptr, align 8
  store ptr %0, ptr %2, align 8, !tbaa !130
  %3 = load ptr, ptr %2, align 8, !tbaa !130
  %4 = getelementptr inbounds nuw %struct.Vec_Ptr_t_, ptr %3, i32 0, i32 1
  %5 = load i32, ptr %4, align 4, !tbaa !131
  ret i32 %5
}

; Function Attrs: nounwind uwtable
define void @Ivy_FraigSavePattern(ptr noundef %0) #0 {
  %2 = alloca ptr, align 8
  %3 = alloca ptr, align 8
  %4 = alloca i32, align 4
  store ptr %0, ptr %2, align 8, !tbaa !60
  call void @llvm.lifetime.start.p0(i64 8, ptr %3) #12
  call void @llvm.lifetime.start.p0(i64 4, ptr %4) #12
  %5 = load ptr, ptr %2, align 8, !tbaa !60
  %6 = getelementptr inbounds nuw %struct.Ivy_FraigMan_t_, ptr %5, i32 0, i32 9
  %7 = load ptr, ptr %6, align 8, !tbaa !111
  %8 = load ptr, ptr %2, align 8, !tbaa !60
  %9 = getelementptr inbounds nuw %struct.Ivy_FraigMan_t_, ptr %8, i32 0, i32 8
  %10 = load i32, ptr %9, align 8, !tbaa !110
  %11 = sext i32 %10 to i64
  %12 = mul i64 4, %11
  call void @llvm.memset.p0.i64(ptr align 4 %7, i8 0, i64 %12, i1 false)
  store i32 0, ptr %4, align 4, !tbaa !44
  br label %13

13:                                               ; preds = %50, %1
  %14 = load i32, ptr %4, align 4, !tbaa !44
  %15 = load ptr, ptr %2, align 8, !tbaa !60
  %16 = getelementptr inbounds nuw %struct.Ivy_FraigMan_t_, ptr %15, i32 0, i32 4
  %17 = load ptr, ptr %16, align 8, !tbaa !73
  %18 = getelementptr inbounds nuw %struct.Ivy_Man_t_, ptr %17, i32 0, i32 0
  %19 = load ptr, ptr %18, align 8, !tbaa !137
  %20 = call i32 @Vec_PtrSize(ptr noundef %19)
  %21 = icmp slt i32 %14, %20
  br i1 %21, label %22, label %30

22:                                               ; preds = %13
  %23 = load ptr, ptr %2, align 8, !tbaa !60
  %24 = getelementptr inbounds nuw %struct.Ivy_FraigMan_t_, ptr %23, i32 0, i32 4
  %25 = load ptr, ptr %24, align 8, !tbaa !73
  %26 = getelementptr inbounds nuw %struct.Ivy_Man_t_, ptr %25, i32 0, i32 0
  %27 = load ptr, ptr %26, align 8, !tbaa !137
  %28 = load i32, ptr %4, align 4, !tbaa !44
  %29 = call ptr @Vec_PtrEntry(ptr noundef %27, i32 noundef %28)
  store ptr %29, ptr %3, align 8, !tbaa !72
  br label %30

30:                                               ; preds = %22, %13
  %31 = phi i1 [ false, %13 ], [ true, %22 ]
  br i1 %31, label %32, label %53

32:                                               ; preds = %30
  %33 = load ptr, ptr %2, align 8, !tbaa !60
  %34 = getelementptr inbounds nuw %struct.Ivy_FraigMan_t_, ptr %33, i32 0, i32 14
  %35 = load ptr, ptr %34, align 8, !tbaa !87
  %36 = getelementptr inbounds nuw %struct.sat_solver_t, ptr %35, i32 0, i32 36
  %37 = load ptr, ptr %36, align 8, !tbaa !194
  %38 = load ptr, ptr %3, align 8, !tbaa !72
  %39 = call i32 @Ivy_ObjSatNum(ptr noundef %38)
  %40 = sext i32 %39 to i64
  %41 = getelementptr inbounds i32, ptr %37, i64 %40
  %42 = load i32, ptr %41, align 4, !tbaa !44
  %43 = icmp eq i32 %42, 1
  br i1 %43, label %44, label %49

44:                                               ; preds = %32
  %45 = load ptr, ptr %2, align 8, !tbaa !60
  %46 = getelementptr inbounds nuw %struct.Ivy_FraigMan_t_, ptr %45, i32 0, i32 9
  %47 = load ptr, ptr %46, align 8, !tbaa !111
  %48 = load i32, ptr %4, align 4, !tbaa !44
  call void @Ivy_InfoSetBit(ptr noundef %47, i32 noundef %48)
  br label %49

49:                                               ; preds = %44, %32
  br label %50

50:                                               ; preds = %49
  %51 = load i32, ptr %4, align 4, !tbaa !44
  %52 = add nsw i32 %51, 1
  store i32 %52, ptr %4, align 4, !tbaa !44
  br label %13, !llvm.loop !195

53:                                               ; preds = %30
  call void @llvm.lifetime.end.p0(i64 4, ptr %4) #12
  call void @llvm.lifetime.end.p0(i64 8, ptr %3) #12
  ret void
}