; Function Attrs: nofree norecurse nosync nounwind memory(readwrite, inaccessiblemem: none) uwtable
define void @Ivy_FraigSavePattern(ptr noundef readonly captures(none) %0) local_unnamed_addr #9 {
  %2 = getelementptr inbounds nuw i8, ptr %0, i64 72
  %3 = load ptr, ptr %2, align 8, !tbaa !109
  %4 = getelementptr inbounds nuw i8, ptr %0, i64 64
  %5 = load i32, ptr %4, align 8, !tbaa !108
  %6 = sext i32 %5 to i64
  %7 = shl nsw i64 %6, 2
  tail call void @llvm.memset.p0.i64(ptr align 4 %3, i8 0, i64 %7, i1 false)
  %8 = getelementptr inbounds nuw i8, ptr %0, i64 32
  %9 = load ptr, ptr %8, align 8, !tbaa !69
  %10 = load ptr, ptr %9, align 8, !tbaa !111
  %11 = getelementptr i8, ptr %10, i64 4
  %.val12 = load i32, ptr %11, align 4, !tbaa !47
  %12 = icmp sgt i32 %.val12, 0
  br i1 %12, label %.lr.ph, label %.critedge

.lr.ph:                                           ; preds = %1
  %13 = getelementptr i8, ptr %10, i64 8
  %.val10 = load ptr, ptr %13, align 8, !tbaa !49
  %14 = getelementptr inbounds nuw i8, ptr %0, i64 144
  %15 = load ptr, ptr %14, align 8, !tbaa !71
  %16 = getelementptr inbounds nuw i8, ptr %15, i64 328
  %17 = load ptr, ptr %16, align 8, !tbaa !136
  br label %18

18:                                               ; preds = %.lr.ph, %37
  %.val15 = phi i32 [ %.val12, %.lr.ph ], [ %.val, %37 ]
  %indvars.iv = phi i64 [ 0, %.lr.ph ], [ %indvars.iv.next, %37 ]
  %19 = getelementptr inbounds nuw ptr, ptr %.val10, i64 %indvars.iv
  %20 = load ptr, ptr %19, align 8, !tbaa !51
  %21 = getelementptr i8, ptr %20, i64 40
  %.val11 = load ptr, ptr %21, align 8, !tbaa !126
  %22 = ptrtoint ptr %.val11 to i64
  %sext = shl i64 %22, 32
  %23 = ashr exact i64 %sext, 30
  %24 = getelementptr inbounds i8, ptr %17, i64 %23
  %25 = load i32, ptr %24, align 4, !tbaa !38
  %26 = icmp eq i32 %25, 1
  br i1 %26, label %27, label %37

27:                                               ; preds = %18
  %28 = load ptr, ptr %2, align 8, !tbaa !109
  %29 = trunc nuw nsw i64 %indvars.iv to i32
  %30 = and i32 %29, 31
  %31 = shl nuw i32 1, %30
  %32 = lshr i64 %indvars.iv, 5
  %33 = and i64 %32, 134217727
  %34 = getelementptr inbounds nuw i32, ptr %28, i64 %33
  %35 = load i32, ptr %34, align 4, !tbaa !38
  %36 = or i32 %35, %31
  store i32 %36, ptr %34, align 4, !tbaa !38
  %.val.pre = load i32, ptr %11, align 4, !tbaa !47
  br label %37

37:                                               ; preds = %18, %27
  %.val = phi i32 [ %.val15, %18 ], [ %.val.pre, %27 ]
  %indvars.iv.next = add nuw nsw i64 %indvars.iv, 1
  %38 = sext i32 %.val to i64
  %39 = icmp slt i64 %indvars.iv.next, %38
  br i1 %39, label %18, label %.critedge, !llvm.loop !137

.critedge:                                        ; preds = %37, %1
  ret void
}